; Function Attrs: mustprogress nofree norecurse nosync nounwind willreturn memory(argmem: readwrite) uwtable
define dso_local void @diff_merges_default_to_first_parent(ptr noundef captures(none) %0) local_unnamed_addr #6 {
  %2 = getelementptr inbounds nuw i8, ptr %0, i64 288
  %3 = load i64, ptr %2, align 8
  %4 = and i64 %3, 2251799813685248
  %.not.not = icmp eq i64 %4, 0
  %5 = or i64 %3, 18014398509481984
  %6 = select i1 %.not.not, i64 %5, i64 %3
  %7 = and i64 %6, 18014398509481984
  %.not4 = icmp ne i64 %7, 0
  %8 = or i1 %.not.not, %.not4
  br i1 %8, label %9, label %11

9:                                                ; preds = %1
  %10 = shl nuw nsw i64 %7, 4
  %simplifycfg.merge = or i64 %6, %10
  store i64 %simplifycfg.merge, ptr %2, align 8
  br label %11

11:                                               ; preds = %1, %9
  ret void
}